target datalayout = "e-m:e-p270:32:32-p271:32:32-p272:64:64-i64:64-i128:128-f80:128-n8:16:32:64-S128"
target triple = "x86_64-pc-linux-gnu"

%"struct.llvm::detail::PunnedPointer.19" = type { [8 x i8] }
%"class.clang::QualType" = type { %"class.llvm::PointerIntPair" }
%"class.llvm::PointerIntPair" = type { %"struct.llvm::detail::PunnedPointer" }
%"struct.llvm::detail::PunnedPointer" = type { [8 x i8] }
%"class.clang::ExtQualsTypeCommonBase" = type { ptr, %"class.clang::QualType" }
%union.anon = type { %"class.clang::Type::FunctionTypeBitfields" }
%"class.clang::Type::FunctionTypeBitfields" = type { i64 }
%"class.llvm::raw_ostream" = type { ptr, i32, ptr, ptr, ptr, i8, i32 }
%"class.clang::TemplateName" = type { %"class.llvm::PointerUnion.447" }
%"class.llvm::PointerUnion.447" = type { %"class.llvm::pointer_union_detail::PointerUnionMembers.448" }
%"class.llvm::pointer_union_detail::PointerUnionMembers.448" = type { %"class.llvm::pointer_union_detail::PointerUnionMembers.449" }
%"class.llvm::pointer_union_detail::PointerUnionMembers.449" = type { %"class.llvm::pointer_union_detail::PointerUnionMembers.450" }
%"class.llvm::pointer_union_detail::PointerUnionMembers.450" = type { %"class.llvm::pointer_union_detail::PointerUnionMembers.451" }
%"class.llvm::pointer_union_detail::PointerUnionMembers.451" = type { %"class.llvm::pointer_union_detail::PointerUnionMembers.452" }
%"class.llvm::pointer_union_detail::PointerUnionMembers.452" = type { %"class.llvm::PointerIntPair.453" }
%"class.llvm::PointerIntPair.453" = type { %"struct.llvm::detail::PunnedPointer.19" }
%"struct.clang::PrintingPolicy" = type { i64, ptr }
%"class.(anonymous namespace)::TypePrinter" = type <{ %"struct.clang::PrintingPolicy", i32, i8, i8, [2 x i8] }>
%"class.clang::Type.base" = type { %"class.clang::ExtQualsTypeCommonBase", %union.anon }
%"class.llvm::FoldingSetBase::Node" = type { ptr }
%"class.clang::TemplateSpecializationType" = type { %"class.clang::Type.base", %"class.llvm::FoldingSetBase::Node", %"class.clang::TemplateName", [8 x i8] }
%"class.(anonymous namespace)::IncludeStrongLifetimeRAII" = type <{ ptr, i8, [7 x i8] }>
%"class.clang::InjectedClassNameType" = type { %"class.clang::Type.base", ptr, %"class.clang::QualType", [8 x i8] }

; Function Attrs: mustprogress nounwind uwtable
define linkonce_odr hidden noundef i64 @_ZNK4llvm6detail13PunnedPointerINS_12PointerUnionIJPKN5clang4TypeEPKNS3_8ExtQualsEEEEE5asIntEv(ptr noundef nonnull align 8 dereferenceable(8) %0) #0 comdat align 2 {
  %2 = alloca ptr, align 8
  %3 = alloca i64, align 8
  store ptr %0, ptr %2, align 8
  %4 = load ptr, ptr %2, align 8
  store i64 0, ptr %3, align 8
  %5 = getelementptr inbounds nuw %"struct.llvm::detail::PunnedPointer", ptr %4, i32 0, i32 0
  %6 = getelementptr inbounds [8 x i8], ptr %5, i64 0, i64 0
  call void @llvm.memcpy.p0.p0.i64(ptr align 8 %3, ptr align 8 %6, i64 8, i1 false)
  %7 = load i64, ptr %3, align 8
  ret i64 %7
}

; Function Attrs: mustprogress nounwind uwtable
define linkonce_odr hidden noundef ptr @_ZN4llvm16cast_convert_valIN5clang26TemplateSpecializationTypeEPKNS1_4TypeES5_E4doitES5_(ptr noundef %0) #0 comdat align 2 {
  %2 = alloca ptr, align 8
  store ptr %0, ptr %2, align 8
  %3 = load ptr, ptr %2, align 8
  ret ptr %3
}

; Function Attrs: mustprogress nounwind uwtable
define linkonce_odr hidden noundef ptr @_ZNK4llvm14PointerIntPairINS_12PointerUnionIJPKN5clang4TypeEPKNS2_8ExtQualsEEEELj3EjNS_21PointerLikeTypeTraitsIS9_EENS_18PointerIntPairInfoIS9_Lj3ESB_EEE14getOpaqueValueEv(ptr noundef nonnull align 8 dereferenceable(8) %0) #0 comdat align 2 {
  %2 = alloca ptr, align 8
  store ptr %0, ptr %2, align 8
  %3 = load ptr, ptr %2, align 8
  %4 = getelementptr inbounds nuw %"class.llvm::PointerIntPair", ptr %3, i32 0, i32 0
  %5 = call noundef i64 @_ZNK4llvm6detail13PunnedPointerINS_12PointerUnionIJPKN5clang4TypeEPKNS3_8ExtQualsEEEEE5asIntEv(ptr noundef nonnull align 8 dereferenceable(8) %4)
  %6 = inttoptr i64 %5 to ptr
  ret ptr %6
}

; Function Attrs: mustprogress nounwind uwtable
define linkonce_odr hidden noundef ptr @_ZN4llvm8CastInfoIN5clang26TemplateSpecializationTypeEPKNS1_4TypeEvE6doCastERKS5_(ptr noundef nonnull align 8 dereferenceable(8) %0) #0 comdat align 2 {
  %2 = alloca ptr, align 8
  store ptr %0, ptr %2, align 8
  %3 = load ptr, ptr %2, align 8
  %4 = load ptr, ptr %3, align 8
  %5 = call noundef ptr @_ZN4llvm16cast_convert_valIN5clang26TemplateSpecializationTypeEPKNS1_4TypeES5_E4doitES5_(ptr noundef %4)
  ret ptr %5
}

; Function Attrs: mustprogress nounwind uwtable
define linkonce_odr hidden noundef ptr @_ZNK5clang8QualType12getCommonPtrEv(ptr noundef nonnull align 8 dereferenceable(8) %0) #0 comdat align 2 {
  %2 = alloca ptr, align 8
  %3 = alloca i64, align 8
  store ptr %0, ptr %2, align 8
  %4 = load ptr, ptr %2, align 8
  %5 = getelementptr inbounds nuw %"class.clang::QualType", ptr %4, i32 0, i32 0
  %6 = call noundef ptr @_ZNK4llvm14PointerIntPairINS_12PointerUnionIJPKN5clang4TypeEPKNS2_8ExtQualsEEEELj3EjNS_21PointerLikeTypeTraitsIS9_EENS_18PointerIntPairInfoIS9_Lj3ESB_EEE14getOpaqueValueEv(ptr noundef nonnull align 8 dereferenceable(8) %5)
  %7 = ptrtoint ptr %6 to i64
  store i64 %7, ptr %3, align 8
  %8 = load i64, ptr %3, align 8
  %9 = and i64 %8, -16
  store i64 %9, ptr %3, align 8
  %10 = load i64, ptr %3, align 8
  %11 = inttoptr i64 %10 to ptr
  ret ptr %11
}

; Function Attrs: mustprogress nounwind uwtable
define linkonce_odr hidden noundef nonnull align 8 dereferenceable(48) ptr @_ZN4llvm11raw_ostreamlsEc(ptr noundef nonnull align 8 dereferenceable(48) %0, i8 noundef signext %1) #0 comdat align 2 {
  %3 = alloca ptr, align 8
  %4 = alloca ptr, align 8
  %5 = alloca i8, align 1
  store ptr %0, ptr %4, align 8
  store i8 %1, ptr %5, align 1
  %6 = load ptr, ptr %4, align 8
  %7 = getelementptr inbounds nuw %"class.llvm::raw_ostream", ptr %6, i32 0, i32 4
  %8 = load ptr, ptr %7, align 8
  %9 = getelementptr inbounds nuw %"class.llvm::raw_ostream", ptr %6, i32 0, i32 3
  %10 = load ptr, ptr %9, align 8
  %11 = icmp uge ptr %8, %10
  br i1 %11, label %12, label %15

12:                                               ; preds = %2
  %13 = load i8, ptr %5, align 1
  %14 = call noundef nonnull align 8 dereferenceable(48) ptr @_ZN4llvm11raw_ostream5writeEh(ptr noundef nonnull align 8 dereferenceable(48) %6, i8 noundef zeroext %13)
  store ptr %14, ptr %3, align 8
  br label %20

15:                                               ; preds = %2
  %16 = load i8, ptr %5, align 1
  %17 = getelementptr inbounds nuw %"class.llvm::raw_ostream", ptr %6, i32 0, i32 4
  %18 = load ptr, ptr %17, align 8
  %19 = getelementptr inbounds i8, ptr %18, i32 1
  store ptr %19, ptr %17, align 8
  store i8 %16, ptr %18, align 1
  store ptr %6, ptr %3, align 8
  br label %20

20:                                               ; preds = %15, %12
  %21 = load ptr, ptr %3, align 8
  ret ptr %21
}

; Function Attrs: mustprogress nounwind uwtable
define linkonce_odr hidden i64 @_ZNK5clang26TemplateSpecializationType15getTemplateNameEv(ptr noundef nonnull align 16 dereferenceable(40) %0) #0 comdat align 2 {
  %2 = alloca %"class.clang::TemplateName", align 8
  %3 = alloca ptr, align 8
  store ptr %0, ptr %3, align 8
  %4 = load ptr, ptr %3, align 8
  %5 = getelementptr inbounds nuw %"class.clang::TemplateSpecializationType", ptr %4, i32 0, i32 2
  call void @llvm.memcpy.p0.p0.i64(ptr align 8 %2, ptr align 16 %5, i64 8, i1 false)
  %6 = getelementptr inbounds nuw %"class.clang::TemplateName", ptr %2, i32 0, i32 0
  %7 = getelementptr inbounds nuw %"class.llvm::PointerUnion.447", ptr %6, i32 0, i32 0
  %8 = getelementptr inbounds nuw %"class.llvm::pointer_union_detail::PointerUnionMembers.448", ptr %7, i32 0, i32 0
  %9 = getelementptr inbounds nuw %"class.llvm::pointer_union_detail::PointerUnionMembers.449", ptr %8, i32 0, i32 0
  %10 = getelementptr inbounds nuw %"class.llvm::pointer_union_detail::PointerUnionMembers.450", ptr %9, i32 0, i32 0
  %11 = getelementptr inbounds nuw %"class.llvm::pointer_union_detail::PointerUnionMembers.451", ptr %10, i32 0, i32 0
  %12 = getelementptr inbounds nuw %"class.llvm::pointer_union_detail::PointerUnionMembers.452", ptr %11, i32 0, i32 0
  %13 = getelementptr inbounds nuw %"class.llvm::PointerIntPair.453", ptr %12, i32 0, i32 0
  %14 = getelementptr inbounds nuw %"struct.llvm::detail::PunnedPointer.19", ptr %13, i32 0, i32 0
  %15 = load i64, ptr %14, align 8
  ret i64 %15
}

; Function Attrs: mustprogress nounwind uwtable
define linkonce_odr hidden noundef ptr @_ZN4llvm4castIN5clang26TemplateSpecializationTypeEKNS1_4TypeEEEDcPT0_(ptr noundef %0) #0 comdat {
  %2 = alloca ptr, align 8
  store ptr %0, ptr %2, align 8
  %3 = call noundef ptr @_ZN4llvm8CastInfoIN5clang26TemplateSpecializationTypeEPKNS1_4TypeEvE6doCastERKS5_(ptr noundef nonnull align 8 dereferenceable(8) %2)
  ret ptr %3
}

; Function Attrs: mustprogress nounwind uwtable
define linkonce_odr hidden noundef ptr @_ZNK5clang8QualType10getTypePtrEv(ptr noundef nonnull align 8 dereferenceable(8) %0) #0 comdat align 2 {
  %2 = alloca ptr, align 8
  store ptr %0, ptr %2, align 8
  %3 = load ptr, ptr %2, align 8
  %4 = call noundef ptr @_ZNK5clang8QualType12getCommonPtrEv(ptr noundef nonnull align 8 dereferenceable(8) %3)
  %5 = getelementptr inbounds nuw %"class.clang::ExtQualsTypeCommonBase", ptr %4, i32 0, i32 0
  %6 = load ptr, ptr %5, align 8
  ret ptr %6
}

; Function Attrs: mustprogress nounwind uwtable
define internal void @_ZN12_GLOBAL__N_125IncludeStrongLifetimeRAIID2Ev(ptr noundef nonnull align 8 dereferenceable(9) %0) unnamed_addr #0 align 2 {
  %2 = alloca ptr, align 8
  store ptr %0, ptr %2, align 8
  %3 = load ptr, ptr %2, align 8
  %4 = getelementptr inbounds nuw %"class.(anonymous namespace)::IncludeStrongLifetimeRAII", ptr %3, i32 0, i32 1
  %5 = load i8, ptr %4, align 8
  %6 = trunc i8 %5 to i1
  %7 = zext i1 %6 to i32
  %8 = getelementptr inbounds nuw %"class.(anonymous namespace)::IncludeStrongLifetimeRAII", ptr %3, i32 0, i32 0
  %9 = load ptr, ptr %8, align 8
  %10 = zext i32 %7 to i64
  %11 = load i64, ptr %9, align 8
  %12 = and i64 %10, 1
  %13 = shl i64 %12, 18
  %14 = and i64 %11, -262145
  %15 = or i64 %14, %13
  store i64 %15, ptr %9, align 8
  ret void
}

; Function Attrs: mustprogress nounwind uwtable
define internal void @_ZN12_GLOBAL__N_111TypePrinter22spaceBeforePlaceHolderERN4llvm11raw_ostreamE(ptr noundef nonnull align 8 dereferenceable(22) %0, ptr noundef nonnull align 8 dereferenceable(48) %1) #0 align 2 {
  %3 = alloca ptr, align 8
  %4 = alloca ptr, align 8
  store ptr %0, ptr %3, align 8
  store ptr %1, ptr %4, align 8
  %5 = load ptr, ptr %3, align 8
  %6 = getelementptr inbounds nuw %"class.(anonymous namespace)::TypePrinter", ptr %5, i32 0, i32 2
  %7 = load i8, ptr %6, align 4
  %8 = trunc i8 %7 to i1
  br i1 %8, label %12, label %9

9:                                                ; preds = %2
  %10 = load ptr, ptr %4, align 8
  %11 = call noundef nonnull align 8 dereferenceable(48) ptr @_ZN4llvm11raw_ostreamlsEc(ptr noundef nonnull align 8 dereferenceable(48) %10, i8 noundef signext 32)
  br label %12

12:                                               ; preds = %9, %2
  ret void
}

; Function Attrs: mustprogress nounwind uwtable
define linkonce_odr hidden i64 @_ZNK5clang21InjectedClassNameType15getTemplateNameEv(ptr noundef nonnull align 16 dereferenceable(40) %0) #0 comdat align 2 {
  %2 = alloca %"class.clang::TemplateName", align 8
  %3 = alloca ptr, align 8
  store ptr %0, ptr %3, align 8
  %4 = load ptr, ptr %3, align 8
  %5 = call noundef ptr @_ZNK5clang21InjectedClassNameType14getInjectedTSTEv(ptr noundef nonnull align 16 dereferenceable(40) %4)
  %6 = call i64 @_ZNK5clang26TemplateSpecializationType15getTemplateNameEv(ptr noundef nonnull align 16 dereferenceable(40) %5)
  %7 = getelementptr inbounds nuw %"class.clang::TemplateName", ptr %2, i32 0, i32 0
  %8 = getelementptr inbounds nuw %"class.llvm::PointerUnion.447", ptr %7, i32 0, i32 0
  %9 = getelementptr inbounds nuw %"class.llvm::pointer_union_detail::PointerUnionMembers.448", ptr %8, i32 0, i32 0
  %10 = getelementptr inbounds nuw %"class.llvm::pointer_union_detail::PointerUnionMembers.449", ptr %9, i32 0, i32 0
  %11 = getelementptr inbounds nuw %"class.llvm::pointer_union_detail::PointerUnionMembers.450", ptr %10, i32 0, i32 0
  %12 = getelementptr inbounds nuw %"class.llvm::pointer_union_detail::PointerUnionMembers.451", ptr %11, i32 0, i32 0
  %13 = getelementptr inbounds nuw %"class.llvm::pointer_union_detail::PointerUnionMembers.452", ptr %12, i32 0, i32 0
  %14 = getelementptr inbounds nuw %"class.llvm::PointerIntPair.453", ptr %13, i32 0, i32 0
  %15 = getelementptr inbounds nuw %"struct.llvm::detail::PunnedPointer.19", ptr %14, i32 0, i32 0
  store i64 %6, ptr %15, align 8
  %16 = getelementptr inbounds nuw %"class.clang::TemplateName", ptr %2, i32 0, i32 0
  %17 = getelementptr inbounds nuw %"class.llvm::PointerUnion.447", ptr %16, i32 0, i32 0
  %18 = getelementptr inbounds nuw %"class.llvm::pointer_union_detail::PointerUnionMembers.448", ptr %17, i32 0, i32 0
  %19 = getelementptr inbounds nuw %"class.llvm::pointer_union_detail::PointerUnionMembers.449", ptr %18, i32 0, i32 0
  %20 = getelementptr inbounds nuw %"class.llvm::pointer_union_detail::PointerUnionMembers.450", ptr %19, i32 0, i32 0
  %21 = getelementptr inbounds nuw %"class.llvm::pointer_union_detail::PointerUnionMembers.451", ptr %20, i32 0, i32 0
  %22 = getelementptr inbounds nuw %"class.llvm::pointer_union_detail::PointerUnionMembers.452", ptr %21, i32 0, i32 0
  %23 = getelementptr inbounds nuw %"class.llvm::PointerIntPair.453", ptr %22, i32 0, i32 0
  %24 = getelementptr inbounds nuw %"struct.llvm::detail::PunnedPointer.19", ptr %23, i32 0, i32 0
  %25 = load i64, ptr %24, align 8
  ret i64 %25
}

; Function Attrs: mustprogress nounwind uwtable
define internal void @_ZN12_GLOBAL__N_125IncludeStrongLifetimeRAIIC2ERN5clang14PrintingPolicyE(ptr noundef nonnull align 8 dereferenceable(9) %0, ptr noundef nonnull align 8 dereferenceable(16) %1) unnamed_addr #0 align 2 {
  %3 = alloca ptr, align 8
  %4 = alloca ptr, align 8
  store ptr %0, ptr %3, align 8
  store ptr %1, ptr %4, align 8
  %5 = load ptr, ptr %3, align 8
  %6 = getelementptr inbounds nuw %"class.(anonymous namespace)::IncludeStrongLifetimeRAII", ptr %5, i32 0, i32 0
  %7 = load ptr, ptr %4, align 8
  store ptr %7, ptr %6, align 8
  %8 = getelementptr inbounds nuw %"class.(anonymous namespace)::IncludeStrongLifetimeRAII", ptr %5, i32 0, i32 1
  %9 = load ptr, ptr %4, align 8
  %10 = load i64, ptr %9, align 8
  %11 = lshr i64 %10, 18
  %12 = and i64 %11, 1
  %13 = trunc i64 %12 to i32
  %14 = icmp ne i32 %13, 0
  %15 = zext i1 %14 to i8
  store i8 %15, ptr %8, align 8
  %16 = load ptr, ptr %4, align 8
  %17 = load i64, ptr %16, align 8
  %18 = lshr i64 %17, 19
  %19 = and i64 %18, 1
  %20 = trunc i64 %19 to i32
  %21 = icmp ne i32 %20, 0
  br i1 %21, label %27, label %22

22:                                               ; preds = %2
  %23 = load ptr, ptr %4, align 8
  %24 = load i64, ptr %23, align 8
  %25 = and i64 %24, -262145
  %26 = or i64 %25, 0
  store i64 %26, ptr %23, align 8
  br label %27

27:                                               ; preds = %22, %2
  ret void
}

; Function Attrs: mustprogress nounwind uwtable
define internal void @_ZN12_GLOBAL__N_111TypePrinter33printTemplateSpecializationBeforeEPKN5clang26TemplateSpecializationTypeERN4llvm11raw_ostreamE(ptr noundef nonnull align 8 dereferenceable(22) %0, ptr noundef %1, ptr noundef nonnull align 8 dereferenceable(48) %2) #0 align 2 {
  %4 = alloca ptr, align 8
  %5 = alloca ptr, align 8
  %6 = alloca ptr, align 8
  store ptr %0, ptr %4, align 8
  store ptr %1, ptr %5, align 8
  store ptr %2, ptr %6, align 8
  %7 = load ptr, ptr %4, align 8
  %8 = load ptr, ptr %5, align 8
  %9 = load ptr, ptr %6, align 8
  %10 = getelementptr inbounds nuw %"class.(anonymous namespace)::TypePrinter", ptr %7, i32 0, i32 0
  %11 = load i64, ptr %10, align 8
  %12 = lshr i64 %11, 38
  %13 = and i64 %12, 1
  %14 = trunc i64 %13 to i32
  %15 = icmp ne i32 %14, 0
  call void @_ZN12_GLOBAL__N_111TypePrinter15printTemplateIdEPKN5clang26TemplateSpecializationTypeERN4llvm11raw_ostreamEb(ptr noundef nonnull align 8 dereferenceable(22) %7, ptr noundef %8, ptr noundef nonnull align 8 dereferenceable(48) %9, i1 noundef zeroext %15)
  ret void
}

; Function Attrs: mustprogress nounwind uwtable
define linkonce_odr hidden noundef ptr @_ZNK5clang21InjectedClassNameType14getInjectedTSTEv(ptr noundef nonnull align 16 dereferenceable(40) %0) #0 comdat align 2 {
  %2 = alloca ptr, align 8
  store ptr %0, ptr %2, align 8
  %3 = load ptr, ptr %2, align 8
  %4 = getelementptr inbounds nuw %"class.clang::InjectedClassNameType", ptr %3, i32 0, i32 2
  %5 = call noundef ptr @_ZNK5clang8QualType10getTypePtrEv(ptr noundef nonnull align 8 dereferenceable(8) %4)
  %6 = call noundef ptr @_ZN4llvm4castIN5clang26TemplateSpecializationTypeEKNS1_4TypeEEEDcPT0_(ptr noundef %5)
  ret ptr %6
}

; Function Attrs: mustprogress nounwind uwtable
define internal void @_ZN12_GLOBAL__N_111TypePrinter28printInjectedClassNameBeforeEPKN5clang21InjectedClassNameTypeERN4llvm11raw_ostreamE(ptr noundef nonnull align 8 dereferenceable(22) %0, ptr noundef %1, ptr noundef nonnull align 8 dereferenceable(48) %2) #0 align 2 {
  %4 = alloca ptr, align 8
  %5 = alloca ptr, align 8
  %6 = alloca ptr, align 8
  %7 = alloca %"class.(anonymous namespace)::IncludeStrongLifetimeRAII", align 8
  %8 = alloca %"class.clang::TemplateName", align 8
  store ptr %0, ptr %4, align 8
  store ptr %1, ptr %5, align 8
  store ptr %2, ptr %6, align 8
  %9 = load ptr, ptr %4, align 8
  %10 = getelementptr inbounds nuw %"class.(anonymous namespace)::TypePrinter", ptr %9, i32 0, i32 0
  %11 = load i64, ptr %10, align 8
  %12 = lshr i64 %11, 40
  %13 = and i64 %12, 1
  %14 = trunc i64 %13 to i32
  %15 = icmp ne i32 %14, 0
  br i1 %15, label %16, label %20

16:                                               ; preds = %3
  %17 = load ptr, ptr %5, align 8
  %18 = call noundef ptr @_ZNK5clang21InjectedClassNameType14getInjectedTSTEv(ptr noundef nonnull align 16 dereferenceable(40) %17)
  %19 = load ptr, ptr %6, align 8
  call void @_ZN12_GLOBAL__N_111TypePrinter33printTemplateSpecializationBeforeEPKN5clang26TemplateSpecializationTypeERN4llvm11raw_ostreamE(ptr noundef nonnull align 8 dereferenceable(22) %9, ptr noundef %18, ptr noundef nonnull align 8 dereferenceable(48) %19)
  br label %36

20:                                               ; preds = %3
  %21 = getelementptr inbounds nuw %"class.(anonymous namespace)::TypePrinter", ptr %9, i32 0, i32 0
  call void @_ZN12_GLOBAL__N_125IncludeStrongLifetimeRAIIC2ERN5clang14PrintingPolicyE(ptr noundef nonnull align 8 dereferenceable(9) %7, ptr noundef nonnull align 8 dereferenceable(16) %21)
  %22 = load ptr, ptr %5, align 8
  %23 = call i64 @_ZNK5clang21InjectedClassNameType15getTemplateNameEv(ptr noundef nonnull align 16 dereferenceable(40) %22)
  %24 = getelementptr inbounds nuw %"class.clang::TemplateName", ptr %8, i32 0, i32 0
  %25 = getelementptr inbounds nuw %"class.llvm::PointerUnion.447", ptr %24, i32 0, i32 0
  %26 = getelementptr inbounds nuw %"class.llvm::pointer_union_detail::PointerUnionMembers.448", ptr %25, i32 0, i32 0
  %27 = getelementptr inbounds nuw %"class.llvm::pointer_union_detail::PointerUnionMembers.449", ptr %26, i32 0, i32 0
  %28 = getelementptr inbounds nuw %"class.llvm::pointer_union_detail::PointerUnionMembers.450", ptr %27, i32 0, i32 0
  %29 = getelementptr inbounds nuw %"class.llvm::pointer_union_detail::PointerUnionMembers.451", ptr %28, i32 0, i32 0
  %30 = getelementptr inbounds nuw %"class.llvm::pointer_union_detail::PointerUnionMembers.452", ptr %29, i32 0, i32 0
  %31 = getelementptr inbounds nuw %"class.llvm::PointerIntPair.453", ptr %30, i32 0, i32 0
  %32 = getelementptr inbounds nuw %"struct.llvm::detail::PunnedPointer.19", ptr %31, i32 0, i32 0
  store i64 %23, ptr %32, align 8
  %33 = load ptr, ptr %6, align 8
  %34 = getelementptr inbounds nuw %"class.(anonymous namespace)::TypePrinter", ptr %9, i32 0, i32 0
  call void @_ZNK5clang12TemplateName5printERN4llvm11raw_ostreamERKNS_14PrintingPolicyENS0_9QualifiedE(ptr noundef nonnull align 8 dereferenceable(8) %8, ptr noundef nonnull align 8 dereferenceable(48) %33, ptr noundef nonnull align 8 dereferenceable(16) %34, i32 noundef 1)
  %35 = load ptr, ptr %6, align 8
  call void @_ZN12_GLOBAL__N_111TypePrinter22spaceBeforePlaceHolderERN4llvm11raw_ostreamE(ptr noundef nonnull align 8 dereferenceable(22) %9, ptr noundef nonnull align 8 dereferenceable(48) %35)
  call void @_ZN12_GLOBAL__N_125IncludeStrongLifetimeRAIID2Ev(ptr noundef nonnull align 8 dereferenceable(9) %7) #6
  br label %36

36:                                               ; preds = %20, %16
  ret void
}