; Function Attrs: mustprogress nounwind uwtable
define internal fastcc void @_ZN12_GLOBAL__N_111TypePrinter28printInjectedClassNameBeforeEPKN5clang21InjectedClassNameTypeERN4llvm11raw_ostreamE(ptr noundef nonnull align 8 dereferenceable(22) %0, ptr nocapture noundef readonly %1, ptr noundef nonnull align 8 dereferenceable(48) %2) unnamed_addr #0 align 2 {
  %4 = alloca %"class.clang::TemplateName", align 8
  %5 = load i64, ptr %0, align 8
  %6 = and i64 %5, 1099511627776
  %.not = icmp eq i64 %6, 0
  br i1 %.not, label %14, label %7

7:                                                ; preds = %3
  %8 = getelementptr inbounds nuw i8, ptr %1, i64 32
  %.0.copyload.i.i.i.i.i = load i64, ptr %8, align 8
  %9 = and i64 %.0.copyload.i.i.i.i.i, -16
  %10 = inttoptr i64 %9 to ptr
  %11 = load ptr, ptr %10, align 16
  %12 = and i64 %5, 274877906944
  %13 = icmp ne i64 %12, 0
  tail call fastcc void @_ZN12_GLOBAL__N_111TypePrinter15printTemplateIdEPKN5clang26TemplateSpecializationTypeERN4llvm11raw_ostreamEb(ptr noundef nonnull align 8 dereferenceable(22) %0, ptr noundef %11, ptr noundef nonnull align 8 dereferenceable(48) %2, i1 noundef zeroext %13)
  br label %38

14:                                               ; preds = %3
  %15 = and i64 %5, 262144
  %16 = and i64 %5, 524288
  %.not.i = icmp eq i64 %16, 0
  br i1 %.not.i, label %17, label %_ZN12_GLOBAL__N_125IncludeStrongLifetimeRAIIC2ERN5clang14PrintingPolicyE.exit

17:                                               ; preds = %14
  %18 = and i64 %5, -1099512414209
  store i64 %18, ptr %0, align 8
  br label %_ZN12_GLOBAL__N_125IncludeStrongLifetimeRAIIC2ERN5clang14PrintingPolicyE.exit

_ZN12_GLOBAL__N_125IncludeStrongLifetimeRAIIC2ERN5clang14PrintingPolicyE.exit: ; preds = %14, %17
  %19 = getelementptr inbounds nuw i8, ptr %1, i64 32
  %.0.copyload.i.i.i.i.i.i = load i64, ptr %19, align 8
  %20 = and i64 %.0.copyload.i.i.i.i.i.i, -16
  %21 = inttoptr i64 %20 to ptr
  %22 = load ptr, ptr %21, align 16
  %23 = getelementptr inbounds nuw i8, ptr %22, i64 32
  %.sroa.0.0.copyload.i.i = load i64, ptr %23, align 16
  store i64 %.sroa.0.0.copyload.i.i, ptr %4, align 8
  call void @_ZNK5clang12TemplateName5printERN4llvm11raw_ostreamERKNS_14PrintingPolicyENS0_9QualifiedE(ptr noundef nonnull align 8 dereferenceable(8) %4, ptr noundef nonnull align 8 dereferenceable(48) %2, ptr noundef nonnull align 8 dereferenceable(16) %0, i32 noundef 1) #16
  %24 = getelementptr inbounds i8, ptr %0, i64 20
  %.val7 = load i8, ptr %24, align 4
  %25 = trunc i8 %.val7 to i1
  br i1 %25, label %_ZN12_GLOBAL__N_111TypePrinter22spaceBeforePlaceHolderERN4llvm11raw_ostreamE.exit, label %26

26:                                               ; preds = %_ZN12_GLOBAL__N_125IncludeStrongLifetimeRAIIC2ERN5clang14PrintingPolicyE.exit
  %27 = getelementptr inbounds nuw i8, ptr %2, i64 32
  %28 = load ptr, ptr %27, align 8
  %29 = getelementptr inbounds nuw i8, ptr %2, i64 24
  %30 = load ptr, ptr %29, align 8
  %.not.i.i = icmp ult ptr %28, %30
  br i1 %.not.i.i, label %33, label %31

31:                                               ; preds = %26
  %32 = call noundef nonnull align 8 dereferenceable(48) ptr @_ZN4llvm11raw_ostream5writeEh(ptr noundef nonnull align 8 dereferenceable(48) %2, i8 noundef zeroext 32) #16
  br label %_ZN12_GLOBAL__N_111TypePrinter22spaceBeforePlaceHolderERN4llvm11raw_ostreamE.exit

33:                                               ; preds = %26
  %34 = getelementptr inbounds i8, ptr %28, i64 1
  store ptr %34, ptr %27, align 8
  store i8 32, ptr %28, align 1
  br label %_ZN12_GLOBAL__N_111TypePrinter22spaceBeforePlaceHolderERN4llvm11raw_ostreamE.exit

_ZN12_GLOBAL__N_111TypePrinter22spaceBeforePlaceHolderERN4llvm11raw_ostreamE.exit: ; preds = %_ZN12_GLOBAL__N_125IncludeStrongLifetimeRAIIC2ERN5clang14PrintingPolicyE.exit, %31, %33
  %35 = load i64, ptr %0, align 8
  %36 = and i64 %35, -262145
  %37 = or disjoint i64 %36, %15
  store i64 %37, ptr %0, align 8
  br label %38

38:                                               ; preds = %_ZN12_GLOBAL__N_111TypePrinter22spaceBeforePlaceHolderERN4llvm11raw_ostreamE.exit, %7
  ret void
}